target datalayout = "e-m:e-p270:32:32-p271:32:32-p272:64:64-i64:64-i128:128-f80:128-n8:16:32:64-S128"
target triple = "x86_64-pc-linux-gnu"

; Function Attrs: nounwind uwtable
define ptr @av_strnstr(ptr noundef %0, ptr noundef %1, i64 noundef %2) #0 {
  %4 = alloca ptr, align 8
  %5 = alloca ptr, align 8
  %6 = alloca ptr, align 8
  %7 = alloca i64, align 8
  %8 = alloca i64, align 8
  %9 = alloca i32, align 4
  store ptr %0, ptr %5, align 8, !tbaa !4
  store ptr %1, ptr %6, align 8, !tbaa !4
  store i64 %2, ptr %7, align 8, !tbaa !19
  call void @llvm.lifetime.start.p0(i64 8, ptr %8) #11
  %10 = load ptr, ptr %6, align 8, !tbaa !4
  %11 = call i64 @strlen(ptr noundef %10) #12
  store i64 %11, ptr %8, align 8, !tbaa !19
  %12 = load i64, ptr %8, align 8, !tbaa !19
  %13 = icmp ne i64 %12, 0
  br i1 %13, label %16, label %14

14:                                               ; preds = %3
  %15 = load ptr, ptr %5, align 8, !tbaa !4
  store ptr %15, ptr %4, align 8
  store i32 1, ptr %9, align 4
  br label %35

16:                                               ; preds = %3
  br label %17

17:                                               ; preds = %31, %16
  %18 = load i64, ptr %7, align 8, !tbaa !19
  %19 = load i64, ptr %8, align 8, !tbaa !19
  %20 = icmp uge i64 %18, %19
  br i1 %20, label %21, label %34

21:                                               ; preds = %17
  %22 = load i64, ptr %7, align 8, !tbaa !19
  %23 = add i64 %22, -1
  store i64 %23, ptr %7, align 8, !tbaa !19
  %24 = load ptr, ptr %5, align 8, !tbaa !4
  %25 = load ptr, ptr %6, align 8, !tbaa !4
  %26 = load i64, ptr %8, align 8, !tbaa !19
  %27 = call i32 @memcmp(ptr noundef %24, ptr noundef %25, i64 noundef %26) #12
  %28 = icmp ne i32 %27, 0
  br i1 %28, label %31, label %29

29:                                               ; preds = %21
  %30 = load ptr, ptr %5, align 8, !tbaa !4
  store ptr %30, ptr %4, align 8
  store i32 1, ptr %9, align 4
  br label %35

31:                                               ; preds = %21
  %32 = load ptr, ptr %5, align 8, !tbaa !4
  %33 = getelementptr inbounds nuw i8, ptr %32, i32 1
  store ptr %33, ptr %5, align 8, !tbaa !4
  br label %17, !llvm.loop !21

34:                                               ; preds = %17
  store ptr null, ptr %4, align 8
  store i32 1, ptr %9, align 4
  br label %35

35:                                               ; preds = %34, %29, %14
  call void @llvm.lifetime.end.p0(i64 8, ptr %8) #11
  %36 = load ptr, ptr %4, align 8
  ret ptr %36
}