; Function Attrs: nofree norecurse nounwind memory(argmem: read) uwtable
define ptr @av_strnstr(ptr noundef readonly captures(ret: address, provenance) %0, ptr noundef readonly captures(none) %1, i64 noundef %2) local_unnamed_addr #2 {
  %4 = tail call i64 @strlen(ptr noundef nonnull dereferenceable(1) %1) #18
  %.not = icmp eq i64 %4, 0
  br i1 %.not, label %.loopexit, label %.preheader

.preheader:                                       ; preds = %3
  %.not1416 = icmp ult i64 %2, %4
  br i1 %.not1416, label %.loopexit, label %.lr.ph

.lr.ph:                                           ; preds = %.preheader, %5
  %.01118 = phi i64 [ %6, %5 ], [ %2, %.preheader ]
  %.01217 = phi ptr [ %7, %5 ], [ %0, %.preheader ]
  %bcmp = tail call i32 @bcmp(ptr %.01217, ptr nonnull %1, i64 %4)
  %.not15 = icmp eq i32 %bcmp, 0
  br i1 %.not15, label %.loopexit, label %5

5:                                                ; preds = %.lr.ph
  %6 = add i64 %.01118, -1
  %7 = getelementptr inbounds nuw i8, ptr %.01217, i64 1
  %.not14 = icmp ult i64 %6, %4
  br i1 %.not14, label %.loopexit, label %.lr.ph, !llvm.loop !14

.loopexit:                                        ; preds = %.lr.ph, %5, %.preheader, %3
  %.0 = phi ptr [ %0, %3 ], [ null, %.preheader ], [ %.01217, %.lr.ph ], [ null, %5 ]
  ret ptr %.0
}